target datalayout = "e-m:e-p270:32:32-p271:32:32-p272:64:64-i64:64-i128:128-f80:128-n8:16:32:64-S128"
target triple = "x86_64-pc-linux-gnu"

%class.ABstats = type { [8 x %"class.std::__cxx11::basic_string"], %struct.ABtracker, %struct.ABtracker, [2 x %struct.ABtracker], [8 x %struct.ABtracker] }
%"class.std::__cxx11::basic_string" = type { %"struct.std::__cxx11::basic_string<char>::_Alloc_hider", i64, %union.anon }
%"struct.std::__cxx11::basic_string<char>::_Alloc_hider" = type { ptr }
%union.anon = type { i64, [8 x i8] }
%struct.ABtracker = type { [49 x i32], i32, i32, i32, i32 }

@.str = private unnamed_addr constant [15 x i8] c"Target decided\00", align 1
@.str.1 = private unnamed_addr constant [11 x i8] c"depth == 0\00", align 1
@.str.2 = private unnamed_addr constant [12 x i8] c"QuickTricks\00", align 1
@.str.3 = private unnamed_addr constant [16 x i8] c"QuickTricks 2nd\00", align 1
@.str.4 = private unnamed_addr constant [12 x i8] c"LaterTricks\00", align 1
@.str.5 = private unnamed_addr constant [12 x i8] c"Main lookup\00", align 1
@.str.6 = private unnamed_addr constant [13 x i8] c"Other lookup\00", align 1
@.str.7 = private unnamed_addr constant [11 x i8] c"Move trial\00", align 1

; Function Attrs: mustprogress uwtable
define void @_ZN7ABstats8SetNamesEv(ptr noundef nonnull align 8 dereferenceable(2800) %0) #4 align 2 {
  %2 = alloca ptr, align 8
  store ptr %0, ptr %2, align 8
  %3 = load ptr, ptr %2, align 8
  %4 = getelementptr inbounds nuw %class.ABstats, ptr %3, i32 0, i32 0
  %5 = getelementptr inbounds [8 x %"class.std::__cxx11::basic_string"], ptr %4, i64 0, i64 0
  %6 = call noundef nonnull align 8 dereferenceable(32) ptr @_ZNSt7__cxx1112basic_stringIcSt11char_traitsIcESaIcEEaSEPKc(ptr noundef nonnull align 8 dereferenceable(32) %5, ptr noundef @.str)
  %7 = getelementptr inbounds nuw %class.ABstats, ptr %3, i32 0, i32 0
  %8 = getelementptr inbounds [8 x %"class.std::__cxx11::basic_string"], ptr %7, i64 0, i64 1
  %9 = call noundef nonnull align 8 dereferenceable(32) ptr @_ZNSt7__cxx1112basic_stringIcSt11char_traitsIcESaIcEEaSEPKc(ptr noundef nonnull align 8 dereferenceable(32) %8, ptr noundef @.str.1)
  %10 = getelementptr inbounds nuw %class.ABstats, ptr %3, i32 0, i32 0
  %11 = getelementptr inbounds [8 x %"class.std::__cxx11::basic_string"], ptr %10, i64 0, i64 2
  %12 = call noundef nonnull align 8 dereferenceable(32) ptr @_ZNSt7__cxx1112basic_stringIcSt11char_traitsIcESaIcEEaSEPKc(ptr noundef nonnull align 8 dereferenceable(32) %11, ptr noundef @.str.2)
  %13 = getelementptr inbounds nuw %class.ABstats, ptr %3, i32 0, i32 0
  %14 = getelementptr inbounds [8 x %"class.std::__cxx11::basic_string"], ptr %13, i64 0, i64 3
  %15 = call noundef nonnull align 8 dereferenceable(32) ptr @_ZNSt7__cxx1112basic_stringIcSt11char_traitsIcESaIcEEaSEPKc(ptr noundef nonnull align 8 dereferenceable(32) %14, ptr noundef @.str.3)
  %16 = getelementptr inbounds nuw %class.ABstats, ptr %3, i32 0, i32 0
  %17 = getelementptr inbounds [8 x %"class.std::__cxx11::basic_string"], ptr %16, i64 0, i64 4
  %18 = call noundef nonnull align 8 dereferenceable(32) ptr @_ZNSt7__cxx1112basic_stringIcSt11char_traitsIcESaIcEEaSEPKc(ptr noundef nonnull align 8 dereferenceable(32) %17, ptr noundef @.str.4)
  %19 = getelementptr inbounds nuw %class.ABstats, ptr %3, i32 0, i32 0
  %20 = getelementptr inbounds [8 x %"class.std::__cxx11::basic_string"], ptr %19, i64 0, i64 5
  %21 = call noundef nonnull align 8 dereferenceable(32) ptr @_ZNSt7__cxx1112basic_stringIcSt11char_traitsIcESaIcEEaSEPKc(ptr noundef nonnull align 8 dereferenceable(32) %20, ptr noundef @.str.5)
  %22 = getelementptr inbounds nuw %class.ABstats, ptr %3, i32 0, i32 0
  %23 = getelementptr inbounds [8 x %"class.std::__cxx11::basic_string"], ptr %22, i64 0, i64 6
  %24 = call noundef nonnull align 8 dereferenceable(32) ptr @_ZNSt7__cxx1112basic_stringIcSt11char_traitsIcESaIcEEaSEPKc(ptr noundef nonnull align 8 dereferenceable(32) %23, ptr noundef @.str.6)
  %25 = getelementptr inbounds nuw %class.ABstats, ptr %3, i32 0, i32 0
  %26 = getelementptr inbounds [8 x %"class.std::__cxx11::basic_string"], ptr %25, i64 0, i64 7
  %27 = call noundef nonnull align 8 dereferenceable(32) ptr @_ZNSt7__cxx1112basic_stringIcSt11char_traitsIcESaIcEEaSEPKc(ptr noundef nonnull align 8 dereferenceable(32) %26, ptr noundef @.str.7)
  ret void
}