; Function Attrs: mustprogress uwtable
define void @_ZN7ABstats8SetNamesEv(ptr noundef nonnull align 8 dereferenceable(2800) %0) local_unnamed_addr #3 align 2 {
  %2 = tail call noundef nonnull align 8 dereferenceable(32) ptr @_ZNSt7__cxx1112basic_stringIcSt11char_traitsIcESaIcEEaSEPKc(ptr noundef nonnull align 8 dereferenceable(32) %0, ptr noundef nonnull @.str)
  %3 = getelementptr inbounds i8, ptr %0, i64 32
  %4 = tail call noundef nonnull align 8 dereferenceable(32) ptr @_ZNSt7__cxx1112basic_stringIcSt11char_traitsIcESaIcEEaSEPKc(ptr noundef nonnull align 8 dereferenceable(32) %3, ptr noundef nonnull @.str.1)
  %5 = getelementptr inbounds i8, ptr %0, i64 64
  %6 = tail call noundef nonnull align 8 dereferenceable(32) ptr @_ZNSt7__cxx1112basic_stringIcSt11char_traitsIcESaIcEEaSEPKc(ptr noundef nonnull align 8 dereferenceable(32) %5, ptr noundef nonnull @.str.2)
  %7 = getelementptr inbounds i8, ptr %0, i64 96
  %8 = tail call noundef nonnull align 8 dereferenceable(32) ptr @_ZNSt7__cxx1112basic_stringIcSt11char_traitsIcESaIcEEaSEPKc(ptr noundef nonnull align 8 dereferenceable(32) %7, ptr noundef nonnull @.str.3)
  %9 = getelementptr inbounds i8, ptr %0, i64 128
  %10 = tail call noundef nonnull align 8 dereferenceable(32) ptr @_ZNSt7__cxx1112basic_stringIcSt11char_traitsIcESaIcEEaSEPKc(ptr noundef nonnull align 8 dereferenceable(32) %9, ptr noundef nonnull @.str.4)
  %11 = getelementptr inbounds i8, ptr %0, i64 160
  %12 = tail call noundef nonnull align 8 dereferenceable(32) ptr @_ZNSt7__cxx1112basic_stringIcSt11char_traitsIcESaIcEEaSEPKc(ptr noundef nonnull align 8 dereferenceable(32) %11, ptr noundef nonnull @.str.5)
  %13 = getelementptr inbounds i8, ptr %0, i64 192
  %14 = tail call noundef nonnull align 8 dereferenceable(32) ptr @_ZNSt7__cxx1112basic_stringIcSt11char_traitsIcESaIcEEaSEPKc(ptr noundef nonnull align 8 dereferenceable(32) %13, ptr noundef nonnull @.str.6)
  %15 = getelementptr inbounds i8, ptr %0, i64 224
  %16 = tail call noundef nonnull align 8 dereferenceable(32) ptr @_ZNSt7__cxx1112basic_stringIcSt11char_traitsIcESaIcEEaSEPKc(ptr noundef nonnull align 8 dereferenceable(32) %15, ptr noundef nonnull @.str.7)
  ret void
}